; Function Attrs: mustprogress noreturn uwtable
define void @_ZN2cv4gapi3wip6onevpl20VPPPreprocDispatcher18initialize_preprocERKNS1_9pp_paramsERKNS_10GFrameDescE(ptr dead_on_unwind noalias nocapture readnone sret(%"struct.cv::gapi::wip::pp_session") align 8 %0, ptr nocapture nonnull readnone align 8 %1, ptr nocapture nonnull readnone align 8 %2, ptr nocapture nonnull readnone align 4 %3) unnamed_addr #4 align 2 personality ptr @__gxx_personality_v0 {
  %5 = alloca %"class.std::__cxx11::basic_string", align 8
  %6 = alloca %"class.std::allocator", align 1
  call void @_ZNSaIcEC1Ev(ptr noundef nonnull align 1 dereferenceable(1) %6) #9
  invoke void @_ZNSt7__cxx1112basic_stringIcSt11char_traitsIcESaIcEEC1EPKcRKS3_(ptr noundef nonnull align 8 dereferenceable(32) %5, ptr noundef nonnull @.str, ptr noundef nonnull align 1 dereferenceable(1) %6)
          to label %7 unwind label %9

7:                                                ; preds = %4
  invoke void @_ZN2cv5errorEiRKNSt7__cxx1112basic_stringIcSt11char_traitsIcESaIcEEEPKcS9_i(i32 noundef -2, ptr noundef nonnull align 8 dereferenceable(32) %5, ptr noundef nonnull @__func__._ZN2cv4gapi3wip6onevpl20VPPPreprocDispatcher18initialize_preprocERKNS1_9pp_paramsERKNS_10GFrameDescE, ptr noundef nonnull @.str.1, i32 noundef 93) #10
          to label %8 unwind label %11

8:                                                ; preds = %7
  unreachable

9:                                                ; preds = %4
  %10 = landingpad { ptr, i32 }
          cleanup
  br label %13

11:                                               ; preds = %7
  %12 = landingpad { ptr, i32 }
          cleanup
  call void @_ZNSt7__cxx1112basic_stringIcSt11char_traitsIcESaIcEED1Ev(ptr noundef nonnull align 8 dereferenceable(32) %5) #9
  br label %13

13:                                               ; preds = %11, %9
  %.pn = phi { ptr, i32 } [ %12, %11 ], [ %10, %9 ]
  call void @_ZNSaIcED1Ev(ptr noundef nonnull align 1 dereferenceable(1) %6) #9
  resume { ptr, i32 } %.pn
}